target datalayout = "e-m:e-p270:32:32-p271:32:32-p272:64:64-i64:64-i128:128-f80:128-n8:16:32:64-S128"
target triple = "x86_64-pc-linux-gnu"

%struct.mbedtls_asn1_buf = type { i32, i64, ptr }
%struct.mbedtls_asn1_named_data = type { %struct.mbedtls_asn1_buf, %struct.mbedtls_asn1_buf, ptr, i8 }

; Function Attrs: nounwind uwtable
define internal i32 @x509_write_name(ptr noundef %0, ptr noundef %1, ptr noundef %2) #0 {
  %4 = alloca i32, align 4
  %5 = alloca ptr, align 8
  %6 = alloca ptr, align 8
  %7 = alloca ptr, align 8
  %8 = alloca i32, align 4
  %9 = alloca i64, align 8
  %10 = alloca ptr, align 8
  %11 = alloca i64, align 8
  %12 = alloca ptr, align 8
  %13 = alloca i64, align 8
  %14 = alloca i32, align 4
  store ptr %0, ptr %5, align 8, !tbaa !41
  store ptr %1, ptr %6, align 8, !tbaa !9
  store ptr %2, ptr %7, align 8, !tbaa !23
  call void @llvm.lifetime.start.p0(i64 4, ptr %8) #7
  store i32 -110, ptr %8, align 4, !tbaa !11
  call void @llvm.lifetime.start.p0(i64 8, ptr %9) #7
  store i64 0, ptr %9, align 8, !tbaa !14
  call void @llvm.lifetime.start.p0(i64 8, ptr %10) #7
  %15 = load ptr, ptr %7, align 8, !tbaa !23
  %16 = getelementptr inbounds nuw %struct.mbedtls_asn1_named_data, ptr %15, i32 0, i32 0
  %17 = getelementptr inbounds nuw %struct.mbedtls_asn1_buf, ptr %16, i32 0, i32 2
  %18 = load ptr, ptr %17, align 8, !tbaa !45
  store ptr %18, ptr %10, align 8, !tbaa !9
  call void @llvm.lifetime.start.p0(i64 8, ptr %11) #7
  %19 = load ptr, ptr %7, align 8, !tbaa !23
  %20 = getelementptr inbounds nuw %struct.mbedtls_asn1_named_data, ptr %19, i32 0, i32 0
  %21 = getelementptr inbounds nuw %struct.mbedtls_asn1_buf, ptr %20, i32 0, i32 1
  %22 = load i64, ptr %21, align 8, !tbaa !46
  store i64 %22, ptr %11, align 8, !tbaa !14
  call void @llvm.lifetime.start.p0(i64 8, ptr %12) #7
  %23 = load ptr, ptr %7, align 8, !tbaa !23
  %24 = getelementptr inbounds nuw %struct.mbedtls_asn1_named_data, ptr %23, i32 0, i32 1
  %25 = getelementptr inbounds nuw %struct.mbedtls_asn1_buf, ptr %24, i32 0, i32 2
  %26 = load ptr, ptr %25, align 8, !tbaa !40
  store ptr %26, ptr %12, align 8, !tbaa !9
  call void @llvm.lifetime.start.p0(i64 8, ptr %13) #7
  %27 = load ptr, ptr %7, align 8, !tbaa !23
  %28 = getelementptr inbounds nuw %struct.mbedtls_asn1_named_data, ptr %27, i32 0, i32 1
  %29 = getelementptr inbounds nuw %struct.mbedtls_asn1_buf, ptr %28, i32 0, i32 1
  %30 = load i64, ptr %29, align 8, !tbaa !47
  store i64 %30, ptr %13, align 8, !tbaa !14
  br label %31

31:                                               ; preds = %3
  %32 = load ptr, ptr %5, align 8, !tbaa !41
  %33 = load ptr, ptr %6, align 8, !tbaa !9
  %34 = load ptr, ptr %7, align 8, !tbaa !23
  %35 = getelementptr inbounds nuw %struct.mbedtls_asn1_named_data, ptr %34, i32 0, i32 1
  %36 = getelementptr inbounds nuw %struct.mbedtls_asn1_buf, ptr %35, i32 0, i32 0
  %37 = load i32, ptr %36, align 8, !tbaa !25
  %38 = load ptr, ptr %12, align 8, !tbaa !9
  %39 = load i64, ptr %13, align 8, !tbaa !14
  %40 = call i32 @mbedtls_asn1_write_tagged_string(ptr noundef %32, ptr noundef %33, i32 noundef %37, ptr noundef %38, i64 noundef %39)
  store i32 %40, ptr %8, align 4, !tbaa !11
  %41 = icmp slt i32 %40, 0
  br i1 %41, label %42, label %44

42:                                               ; preds = %31
  %43 = load i32, ptr %8, align 4, !tbaa !11
  store i32 %43, ptr %4, align 4
  store i32 1, ptr %14, align 4
  br label %133

44:                                               ; preds = %31
  %45 = load i32, ptr %8, align 4, !tbaa !11
  %46 = sext i32 %45 to i64
  %47 = load i64, ptr %9, align 8, !tbaa !14
  %48 = add i64 %47, %46
  store i64 %48, ptr %9, align 8, !tbaa !14
  br label %49

49:                                               ; preds = %44
  br label %50

50:                                               ; preds = %49
  br label %51

51:                                               ; preds = %50
  br label %52

52:                                               ; preds = %51
  %53 = load ptr, ptr %5, align 8, !tbaa !41
  %54 = load ptr, ptr %6, align 8, !tbaa !9
  %55 = load ptr, ptr %10, align 8, !tbaa !9
  %56 = load i64, ptr %11, align 8, !tbaa !14
  %57 = call i32 @mbedtls_asn1_write_oid(ptr noundef %53, ptr noundef %54, ptr noundef %55, i64 noundef %56)
  store i32 %57, ptr %8, align 4, !tbaa !11
  %58 = icmp slt i32 %57, 0
  br i1 %58, label %59, label %61

59:                                               ; preds = %52
  %60 = load i32, ptr %8, align 4, !tbaa !11
  store i32 %60, ptr %4, align 4
  store i32 1, ptr %14, align 4
  br label %133

61:                                               ; preds = %52
  %62 = load i32, ptr %8, align 4, !tbaa !11
  %63 = sext i32 %62 to i64
  %64 = load i64, ptr %9, align 8, !tbaa !14
  %65 = add i64 %64, %63
  store i64 %65, ptr %9, align 8, !tbaa !14
  br label %66

66:                                               ; preds = %61
  br label %67

67:                                               ; preds = %66
  br label %68

68:                                               ; preds = %67
  br label %69

69:                                               ; preds = %68
  %70 = load ptr, ptr %5, align 8, !tbaa !41
  %71 = load ptr, ptr %6, align 8, !tbaa !9
  %72 = load i64, ptr %9, align 8, !tbaa !14
  %73 = call i32 @mbedtls_asn1_write_len(ptr noundef %70, ptr noundef %71, i64 noundef %72)
  store i32 %73, ptr %8, align 4, !tbaa !11
  %74 = icmp slt i32 %73, 0
  br i1 %74, label %75, label %77

75:                                               ; preds = %69
  %76 = load i32, ptr %8, align 4, !tbaa !11
  store i32 %76, ptr %4, align 4
  store i32 1, ptr %14, align 4
  br label %133

77:                                               ; preds = %69
  %78 = load i32, ptr %8, align 4, !tbaa !11
  %79 = sext i32 %78 to i64
  %80 = load i64, ptr %9, align 8, !tbaa !14
  %81 = add i64 %80, %79
  store i64 %81, ptr %9, align 8, !tbaa !14
  br label %82

82:                                               ; preds = %77
  br label %83

83:                                               ; preds = %82
  br label %84

84:                                               ; preds = %83
  br label %85

85:                                               ; preds = %84
  %86 = load ptr, ptr %5, align 8, !tbaa !41
  %87 = load ptr, ptr %6, align 8, !tbaa !9
  %88 = call i32 @mbedtls_asn1_write_tag(ptr noundef %86, ptr noundef %87, i8 noundef zeroext 48)
  store i32 %88, ptr %8, align 4, !tbaa !11
  %89 = icmp slt i32 %88, 0
  br i1 %89, label %90, label %92

90:                                               ; preds = %85
  %91 = load i32, ptr %8, align 4, !tbaa !11
  store i32 %91, ptr %4, align 4
  store i32 1, ptr %14, align 4
  br label %133

92:                                               ; preds = %85
  %93 = load i32, ptr %8, align 4, !tbaa !11
  %94 = sext i32 %93 to i64
  %95 = load i64, ptr %9, align 8, !tbaa !14
  %96 = add i64 %95, %94
  store i64 %96, ptr %9, align 8, !tbaa !14
  br label %97

97:                                               ; preds = %92
  br label %98

98:                                               ; preds = %97
  br label %99

99:                                               ; preds = %98
  br label %100

100:                                              ; preds = %99
  %101 = load ptr, ptr %5, align 8, !tbaa !41
  %102 = load ptr, ptr %6, align 8, !tbaa !9
  %103 = load i64, ptr %9, align 8, !tbaa !14
  %104 = call i32 @mbedtls_asn1_write_len(ptr noundef %101, ptr noundef %102, i64 noundef %103)
  store i32 %104, ptr %8, align 4, !tbaa !11
  %105 = icmp slt i32 %104, 0
  br i1 %105, label %106, label %108

106:                                              ; preds = %100
  %107 = load i32, ptr %8, align 4, !tbaa !11
  store i32 %107, ptr %4, align 4
  store i32 1, ptr %14, align 4
  br label %133

108:                                              ; preds = %100
  %109 = load i32, ptr %8, align 4, !tbaa !11
  %110 = sext i32 %109 to i64
  %111 = load i64, ptr %9, align 8, !tbaa !14
  %112 = add i64 %111, %110
  store i64 %112, ptr %9, align 8, !tbaa !14
  br label %113

113:                                              ; preds = %108
  br label %114

114:                                              ; preds = %113
  br label %115

115:                                              ; preds = %114
  br label %116

116:                                              ; preds = %115
  %117 = load ptr, ptr %5, align 8, !tbaa !41
  %118 = load ptr, ptr %6, align 8, !tbaa !9
  %119 = call i32 @mbedtls_asn1_write_tag(ptr noundef %117, ptr noundef %118, i8 noundef zeroext 49)
  store i32 %119, ptr %8, align 4, !tbaa !11
  %120 = icmp slt i32 %119, 0
  br i1 %120, label %121, label %123

121:                                              ; preds = %116
  %122 = load i32, ptr %8, align 4, !tbaa !11
  store i32 %122, ptr %4, align 4
  store i32 1, ptr %14, align 4
  br label %133

123:                                              ; preds = %116
  %124 = load i32, ptr %8, align 4, !tbaa !11
  %125 = sext i32 %124 to i64
  %126 = load i64, ptr %9, align 8, !tbaa !14
  %127 = add i64 %126, %125
  store i64 %127, ptr %9, align 8, !tbaa !14
  br label %128

128:                                              ; preds = %123
  br label %129

129:                                              ; preds = %128
  br label %130

130:                                              ; preds = %129
  %131 = load i64, ptr %9, align 8, !tbaa !14
  %132 = trunc i64 %131 to i32
  store i32 %132, ptr %4, align 4
  store i32 1, ptr %14, align 4
  br label %133

133:                                              ; preds = %130, %121, %106, %90, %75, %59, %42
  call void @llvm.lifetime.end.p0(i64 8, ptr %13) #7
  call void @llvm.lifetime.end.p0(i64 8, ptr %12) #7
  call void @llvm.lifetime.end.p0(i64 8, ptr %11) #7
  call void @llvm.lifetime.end.p0(i64 8, ptr %10) #7
  call void @llvm.lifetime.end.p0(i64 8, ptr %9) #7
  call void @llvm.lifetime.end.p0(i64 4, ptr %8) #7
  %134 = load i32, ptr %4, align 4
  ret i32 %134
}

; Function Attrs: nounwind uwtable
define hidden i32 @mbedtls_x509_write_names(ptr noundef %0, ptr noundef %1, ptr noundef %2) #0 {
  %4 = alloca i32, align 4
  %5 = alloca ptr, align 8
  %6 = alloca ptr, align 8
  %7 = alloca ptr, align 8
  %8 = alloca i32, align 4
  %9 = alloca i64, align 8
  %10 = alloca ptr, align 8
  %11 = alloca i32, align 4
  store ptr %0, ptr %5, align 8, !tbaa !41
  store ptr %1, ptr %6, align 8, !tbaa !9
  store ptr %2, ptr %7, align 8, !tbaa !23
  call void @llvm.lifetime.start.p0(i64 4, ptr %8) #7
  store i32 -110, ptr %8, align 4, !tbaa !11
  call void @llvm.lifetime.start.p0(i64 8, ptr %9) #7
  store i64 0, ptr %9, align 8, !tbaa !14
  call void @llvm.lifetime.start.p0(i64 8, ptr %10) #7
  %12 = load ptr, ptr %7, align 8, !tbaa !23
  store ptr %12, ptr %10, align 8, !tbaa !23
  br label %13

13:                                               ; preds = %32, %3
  %14 = load ptr, ptr %10, align 8, !tbaa !23
  %15 = icmp ne ptr %14, null
  br i1 %15, label %16, label %36

16:                                               ; preds = %13
  br label %17

17:                                               ; preds = %16
  %18 = load ptr, ptr %5, align 8, !tbaa !41
  %19 = load ptr, ptr %6, align 8, !tbaa !9
  %20 = load ptr, ptr %10, align 8, !tbaa !23
  %21 = call i32 @x509_write_name(ptr noundef %18, ptr noundef %19, ptr noundef %20)
  store i32 %21, ptr %8, align 4, !tbaa !11
  %22 = icmp slt i32 %21, 0
  br i1 %22, label %23, label %25

23:                                               ; preds = %17
  %24 = load i32, ptr %8, align 4, !tbaa !11
  store i32 %24, ptr %4, align 4
  store i32 1, ptr %11, align 4
  br label %70

25:                                               ; preds = %17
  %26 = load i32, ptr %8, align 4, !tbaa !11
  %27 = sext i32 %26 to i64
  %28 = load i64, ptr %9, align 8, !tbaa !14
  %29 = add i64 %28, %27
  store i64 %29, ptr %9, align 8, !tbaa !14
  br label %30

30:                                               ; preds = %25
  br label %31

31:                                               ; preds = %30
  br label %32

32:                                               ; preds = %31
  %33 = load ptr, ptr %10, align 8, !tbaa !23
  %34 = getelementptr inbounds nuw %struct.mbedtls_asn1_named_data, ptr %33, i32 0, i32 2
  %35 = load ptr, ptr %34, align 8, !tbaa !43
  store ptr %35, ptr %10, align 8, !tbaa !23
  br label %13, !llvm.loop !44

36:                                               ; preds = %13
  br label %37

37:                                               ; preds = %36
  %38 = load ptr, ptr %5, align 8, !tbaa !41
  %39 = load ptr, ptr %6, align 8, !tbaa !9
  %40 = load i64, ptr %9, align 8, !tbaa !14
  %41 = call i32 @mbedtls_asn1_write_len(ptr noundef %38, ptr noundef %39, i64 noundef %40)
  store i32 %41, ptr %8, align 4, !tbaa !11
  %42 = icmp slt i32 %41, 0
  br i1 %42, label %43, label %45

43:                                               ; preds = %37
  %44 = load i32, ptr %8, align 4, !tbaa !11
  store i32 %44, ptr %4, align 4
  store i32 1, ptr %11, align 4
  br label %70

45:                                               ; preds = %37
  %46 = load i32, ptr %8, align 4, !tbaa !11
  %47 = sext i32 %46 to i64
  %48 = load i64, ptr %9, align 8, !tbaa !14
  %49 = add i64 %48, %47
  store i64 %49, ptr %9, align 8, !tbaa !14
  br label %50

50:                                               ; preds = %45
  br label %51

51:                                               ; preds = %50
  br label %52

52:                                               ; preds = %51
  br label %53

53:                                               ; preds = %52
  %54 = load ptr, ptr %5, align 8, !tbaa !41
  %55 = load ptr, ptr %6, align 8, !tbaa !9
  %56 = call i32 @mbedtls_asn1_write_tag(ptr noundef %54, ptr noundef %55, i8 noundef zeroext 48)
  store i32 %56, ptr %8, align 4, !tbaa !11
  %57 = icmp slt i32 %56, 0
  br i1 %57, label %58, label %60

58:                                               ; preds = %53
  %59 = load i32, ptr %8, align 4, !tbaa !11
  store i32 %59, ptr %4, align 4
  store i32 1, ptr %11, align 4
  br label %70

60:                                               ; preds = %53
  %61 = load i32, ptr %8, align 4, !tbaa !11
  %62 = sext i32 %61 to i64
  %63 = load i64, ptr %9, align 8, !tbaa !14
  %64 = add i64 %63, %62
  store i64 %64, ptr %9, align 8, !tbaa !14
  br label %65

65:                                               ; preds = %60
  br label %66

66:                                               ; preds = %65
  br label %67

67:                                               ; preds = %66
  %68 = load i64, ptr %9, align 8, !tbaa !14
  %69 = trunc i64 %68 to i32
  store i32 %69, ptr %4, align 4
  store i32 1, ptr %11, align 4
  br label %70

70:                                               ; preds = %67, %58, %43, %23
  call void @llvm.lifetime.end.p0(i64 8, ptr %10) #7
  call void @llvm.lifetime.end.p0(i64 8, ptr %9) #7
  call void @llvm.lifetime.end.p0(i64 4, ptr %8) #7
  %71 = load i32, ptr %4, align 4
  ret i32 %71
}