; Function Attrs: nounwind uwtable
define hidden i32 @mbedtls_x509_write_names(ptr noundef %0, ptr noundef %1, ptr noundef readonly %2) local_unnamed_addr #0 {
  %.not30 = icmp eq ptr %2, null
  br i1 %.not30, label %._crit_edge, label %.lr.ph

.lr.ph:                                           ; preds = %3, %40
  %.032 = phi ptr [ %44, %40 ], [ %2, %3 ]
  %.02131 = phi i64 [ %42, %40 ], [ 0, %3 ]
  %4 = getelementptr inbounds nuw i8, ptr %.032, i64 16
  %5 = load ptr, ptr %4, align 8, !tbaa !31
  %6 = getelementptr inbounds nuw i8, ptr %.032, i64 8
  %7 = load i64, ptr %6, align 8, !tbaa !32
  %8 = getelementptr inbounds nuw i8, ptr %.032, i64 24
  %9 = getelementptr inbounds nuw i8, ptr %.032, i64 40
  %10 = load ptr, ptr %9, align 8, !tbaa !30
  %11 = getelementptr inbounds nuw i8, ptr %.032, i64 32
  %12 = load i64, ptr %11, align 8, !tbaa !33
  %13 = load i32, ptr %8, align 8, !tbaa !25
  %14 = tail call i32 @mbedtls_asn1_write_tagged_string(ptr noundef %0, ptr noundef %1, i32 noundef %13, ptr noundef %10, i64 noundef %12) #10
  %15 = icmp slt i32 %14, 0
  br i1 %15, label %x509_write_name.exit.thread, label %16

16:                                               ; preds = %.lr.ph
  %17 = tail call i32 @mbedtls_asn1_write_oid(ptr noundef %0, ptr noundef %1, ptr noundef %5, i64 noundef %7) #10
  %18 = icmp slt i32 %17, 0
  br i1 %18, label %x509_write_name.exit.thread, label %19

19:                                               ; preds = %16
  %narrow.i = add nuw i32 %17, %14
  %20 = zext i32 %narrow.i to i64
  %21 = tail call i32 @mbedtls_asn1_write_len(ptr noundef %0, ptr noundef %1, i64 noundef %20) #10
  %22 = icmp slt i32 %21, 0
  br i1 %22, label %x509_write_name.exit.thread, label %23

23:                                               ; preds = %19
  %24 = tail call i32 @mbedtls_asn1_write_tag(ptr noundef %0, ptr noundef %1, i8 noundef zeroext 48) #10
  %25 = icmp slt i32 %24, 0
  br i1 %25, label %x509_write_name.exit.thread, label %26

26:                                               ; preds = %23
  %27 = zext nneg i32 %21 to i64
  %28 = add nuw nsw i64 %27, %20
  %29 = zext nneg i32 %24 to i64
  %30 = add nuw nsw i64 %28, %29
  %31 = tail call i32 @mbedtls_asn1_write_len(ptr noundef %0, ptr noundef %1, i64 noundef %30) #10
  %32 = icmp slt i32 %31, 0
  br i1 %32, label %x509_write_name.exit.thread, label %33

33:                                               ; preds = %26
  %34 = tail call i32 @mbedtls_asn1_write_tag(ptr noundef %0, ptr noundef %1, i8 noundef zeroext 49) #10
  %35 = icmp slt i32 %34, 0
  br i1 %35, label %x509_write_name.exit.thread, label %x509_write_name.exit

x509_write_name.exit:                             ; preds = %33
  %36 = trunc i64 %30 to i32
  %37 = add i32 %31, %36
  %38 = add i32 %37, %34
  %39 = icmp slt i32 %38, 0
  br i1 %39, label %x509_write_name.exit.thread, label %40

40:                                               ; preds = %x509_write_name.exit
  %41 = zext nneg i32 %38 to i64
  %42 = add i64 %.02131, %41
  %43 = getelementptr inbounds nuw i8, ptr %.032, i64 48
  %44 = load ptr, ptr %43, align 8, !tbaa !34
  %.not = icmp eq ptr %44, null
  br i1 %.not, label %._crit_edge, label %.lr.ph, !llvm.loop !35

._crit_edge:                                      ; preds = %40, %3
  %.021.lcssa = phi i64 [ 0, %3 ], [ %42, %40 ]
  %45 = tail call i32 @mbedtls_asn1_write_len(ptr noundef %0, ptr noundef %1, i64 noundef %.021.lcssa) #10
  %46 = icmp slt i32 %45, 0
  br i1 %46, label %x509_write_name.exit.thread, label %47

47:                                               ; preds = %._crit_edge
  %48 = tail call i32 @mbedtls_asn1_write_tag(ptr noundef %0, ptr noundef %1, i8 noundef zeroext 48) #10
  %49 = icmp slt i32 %48, 0
  br i1 %49, label %x509_write_name.exit.thread, label %50

50:                                               ; preds = %47
  %51 = trunc i64 %.021.lcssa to i32
  %52 = add i32 %45, %51
  %53 = add i32 %52, %48
  br label %x509_write_name.exit.thread

x509_write_name.exit.thread:                      ; preds = %33, %26, %23, %19, %16, %.lr.ph, %x509_write_name.exit, %47, %._crit_edge, %50
  %.022 = phi i32 [ %53, %50 ], [ %45, %._crit_edge ], [ %48, %47 ], [ %14, %.lr.ph ], [ %17, %16 ], [ %21, %19 ], [ %24, %23 ], [ %31, %26 ], [ %34, %33 ], [ %38, %x509_write_name.exit ]
  ret i32 %.022
}